(dp0
S'n_lights'
p1
I7
sS'light'
p2
(lp3
Na(dp4
S'start'
p5
I1
sS'length'
p6
I5
sa(dp7
g5
I6
sg6
I5
sa(dp8
g5
I11
sg6
I13
sa(dp9
g5
I24
sg6
I25
saNaNaNasS'song'
p10
S'Summer'
p11
sS'beat'
p12
(lp13
I1
aI1
aI1
aI1
aI1
aI1
aI1
aI1
aI1
aI1
aI1
aI1
aI1
aI1
aI1
aI1
aI1
aI1
aI1
aI1
aI1
aI1
aI1
aI1
aI1
aI1
aI1
aI1
aI1
aI1
aI1
aI1
aI1
aI1
aI1
aI1
aI1
aI1
aI1
aI1
aI1
aI1
aI1
aI1
aI1
aI1
aI1
aI1
aI1
aI1
aI1
aI1
aI1
aI1
aI1
aI1
aI1
aI1
aI1
aI1
aI1
aI1
aI1
aI1
aI1
aI1
aI1
aI1
aI1
aI1
aI1
aI1
aI1
aI1
aI1
aI1
aI1
aI1
aI1
aI1
aI1
aI1
aI1
aI1
aI1
aI1
aI1
aI1
aI1
aI1
aI1
aI1
aI1
aI1
aI1
aI1
aI1
aI1
aI1
aI1
aI1
aI1
aI1
aI1
aI1
aI1
aI1
aI1
aI1
aI1
aI1
aI1
aI1
aI1
aI1
aI1
aI1
aI1
aI1
aI1
aI1
aI1
aI1
aI1
aI1
aI1
aI1
aI1
aI1
aI1
aI1
aI1
aI1
aI1
aI1
aI1
aI1
aI1
aI1
aI1
aI1
aI1
aI1
aI1
aI1
aI1
aI1
aI1
aI1
aI1
aI1
aI1
aI1
aI1
aI1
aI1
aI1
aI1
aI1
aI1
aI1
aI1
aI1
aI1
aI1
aI1
aI1
aI1
aI1
aI1
aI1
aI1
aI1
aI1
aI1
aI1
aI1
aI1
aI1
aI1
aI1
aI1
aI1
aI1
aI1
aI1
aI1
aI1
aI1
aI1
aI1
aI1
aI1
aI1
aI1
aI1
aI1
aI1
aI1
aI1
aI1
aI1
aI1
aI1
aI1
aI1
aI1
aI1
aI1
aI1
aI1
aI1
aI1
aI1
aI1
aI1
aI1
aI1
aI1
aI1
aI1
aI1
aI1
aI1
aI1
aI1
aI1
aI1
aI1
aI1
aI1
aI1
aI1
aI1
aI1
aI1
aI1
aI1
aI1
aI1
aI1
aI1
aI1
aI1
aI1
aI1
aI1
aI1
aI1
aI1
aI1
aI1
aI1
aI1
aI1
aI1
aI1
aI1
aI1
aI1
aI1
aI1
aI1
aI1
aI1
aI1
aI1
aI1
aI1
aI1
aI1
aI1
aI1
aI1
aI1
aI1
aI1
aI1
aI1
aI1
aI1
aI1
aI1
aI1
aI1
aI1
aI1
aI1
aI1
aI1
aI1
aI1
aI1
aI1
aI1
aI1
aI1
aI1
aI1
aI1
aI1
aI1
aI1
aI1
aI1
aI1
aI1
aI1
aI1
aI1
aI1
aI1
aI1
aI1
aI1
aI1
aI1
aI1
aI1
aI1
aI1
aI1
aI1
aI1
aI1
aI1
aI1
aI1
aI1
aI1
aI1
aI1
aI1
aI1
aI1
aI1
aI1
aI1
aI1
aI1
aI1
aI1
aI1
aI1
aI1
aI1
aI1
aI1
aI1
aI1
aI1
aI1
aI1
aI1
aI1
aI1
aI1
aI1
aI1
aI1
aI1
aI1
aI1
aI1
aI1
aI1
aI1
aI1
aI1
aI1
aI1
aI1
aI1
aI1
aI1
aI1
aI1
aI1
aI1
aI1
aI1
aI1
aI1
aI1
aI1
aI1
aI1
aI1
aI1
aI1
aI1
aI1
aI1
aI1
aI1
aI1
aI1
aI1
aI1
aI1
aI1
aI1
aI1
aI1
aI1
aI1
aI1
aI1
aI1
aI1
aI1
aI1
aI1
aI1
aI1
aI1
aI1
aI1
aI1
aI1
aI1
aI1
aI1
aI1
aI1
aI1
aI1
aI1
aI1
aI1
aI1
aI1
aI1
aI1
aI1
aI1
aI1
aI1
aI1
aI1
aI1
aI1
aI1
aI1
aI1
aI1
aI1
aI1
aI1
aI1
aI1
aI1
aI1
aI1
aI1
aI1
aI1
aI1
aI1
aI1
aI1
aI1
aI1
aI1
aI1
aI1
aI1
aI1
aI1
aI1
aI1
aI1
aI1
aI1
aI1
aI1
aI1
aI1
aI1
aI1
aI1
aI1
aI1
aI1
aI1
aI1
aI1
aI1
aI1
aI1
aI1
aI1
aI1
aI1
aI1
aI1
aI1
aI1
aI1
aI1
aI1
aI1
aI1
aI1
aI1
aI1
aI1
aI1
aI1
aI1
aI1
aI1
aI1
aI1
aI1
aI1
aI1
aI1
aI1
aI1
aI1
aI1
aI1
aI1
aI1
aI1
aI1
aI1
aI1
aI1
aI1
aI1
aI1
aI1
aI1
aI1
aI1
aI1
aI1
aI1
aI1
aI1
aI1
aI1
aI1
aI1
aI1
aI1
aI1
aI1
aI1
aI1
aI1
aI1
aI1
aI1
aI1
aI1
aI1
aI1
aI1
aI1
aI1
aI1
aI1
aI1
aI1
aI1
aI1
aI1
aI1
aI1
aI1
aI1
aI1
aI1
aI1
aI1
aI1
aI1
aI1
aI1
aI1
aI1
aI1
aI1
aI1
aI1
aI1
aI1
aI1
aI1
aI1
aI1
aI1
aI1
aI1
aI1
aI1
aI1
aI1
aI1
aI1
aI1
aI1
aI1
aI1
aI1
aI1
aI1
aI1
aI1
aI1
aI1
aI1
aI1
aI1
aI1
aI1
aI1
aI1
aI1
aI1
aI1
aI1
aI1
aI1
aI1
aI1
aI1
aI1
aI1
aI1
aI1
aI1
aI1
aI1
aI1
aI1
aI1
aI1
aI1
aI1
aI1
aI1
aI1
aI1
aI1
aI1
aI1
aI1
aI1
aI1
aI1
aI1
aI1
aI1
aI1
aI1
aI1
aI1
aI1
aI1
aI1
aI1
aI1
aI1
aI1
aI1
aI1
aI1
aI1
aI1
aI1
aI1
aI1
aI1
aI1
aI1
aI1
aI1
aI1
aI1
aI1
aI1
aI1
aI1
aI1
aI1
aI1
aI1
aI1
aI1
aI1
aI1
aI1
aI1
aI1
aI1
aI1
aI1
aI1
aI1
aI1
aI1
aI1
aI1
aI1
aI1
aI1
aI1
aI1
aI1
aI1
aI1
aI1
aI1
aI1
aI1
aI1
aI1
aI1
aI1
aI1
aI1
aI1
aI1
aI1
aI1
aI1
aI1
aI1
aI1
aI1
aI1
aI1
aI1
aI1
aI1
aI1
aI1
aI1
aI1
aI1
aI1
aI1
aI1
aI1
aI1
aI1
aI1
aI1
aI1
aI1
aI1
aI1
aI1
aI1
aI1
aI1
aI1
aI1
aI1
aI1
aI1
aI1
aI1
aI1
aI1
aI1
aI1
aI1
aI1
aI1
aI1
aI1
aI1
aI1
aI1
aI1
aI1
aI1
aI1
aI1
aI1
aI1
aI1
aI1
aI1
aI1
aI1
aI1
aI1
aI1
aI1
aI1
aI1
aI1
aI1
aI1
aI1
aI1
aI1
aI1
aI1
aI1
aI1
aI1
aI1
aI1
aI1
aI1
aI1
aI1
aI1
aI1
aI1
aI1
aI1
aI1
aI1
aI1
aI1
aI1
aI1
aI1
aI1
aI1
aI1
aI1
aI1
aI1
aI1
aI1
aI1
aI1
aI1
aI1
aI1
aI1
aI1
aI1
aI1
aI1
aI1
aI1
aI1
aI1
aI1
aI1
aI1
aI1
aI1
aI1
aI1
aI1
aI1
aI1
aI1
aI1
aI1
aI1
aI1
aI1
aI1
aI1
aI1
aI1
aI1
aI1
aI1
aI1
aI1
aI1
aI1
aI1
aI1
aI1
aI1
aI1
aI1
aI1
aI1
aI1
aI1
aI1
aI1
aI1
aI1
aI1
aI1
aI1
aI1
aI1
aI1
aI1
aI1
aI1
aI1
aI1
aI1
aI1
aI1
aI1
aI1
aI1
aI1
aI1
aI1
aI1
aI1
aI1
aI1
aI1
aI1
aI1
aI1
aI1
aI1
aI1
aI1
aI1
aI1
aI1
aI1
aI1
aI1
aI1
aI1
aI1
aI1
aI1
aI1
aI1
aI1
aI1
aI1
aI1
aI1
aI1
aI1
aI1
aI1
aI1
aI1
aI1
aI1
aI1
aI1
aI1
aI1
aI1
aI1
aI1
aI1
aI1
aI1
aI1
aI1
aI1
aI1
aI1
aI1
aI1
aI1
aI1
aI1
aI1
aI1
aI1
aI1
aI1
aI1
aI1
aI1
aI1
aI1
aI1
aI1
aI1
aI1
aI1
aI1
aI1
aI1
aI1
aI1
aI1
aI1
aI1
aI1
aI1
aI1
aI1
aI1
aI1
aI1
aI1
aI1
aI1
aI1
aI1
aI1
aI1
aI1
aI1
aI1
aI1
aI1
aI1
aI1
aI1
aI1
aI1
aI1
aI1
aI1
aI1
aI1
aI1
aI1
aI1
aI1
asS'n_lines'
p14
I1023
sS'address'
p15
(lp16
(dp17
a(dp18
g15
I0
sS'name'
p19
S'B'
p20
sS'id'
p21
I1
sa(dp22
g15
I1
sg19
S'C'
p23
sg21
I1
sa(dp24
g15
I2
sg19
S'D'
p25
sg21
I1
sa(dp26
g15
I3
sg19
S'E'
p27
sg21
I1
sa(dp28
g15
I0
sg19
S'F'
p29
sg21
I2
sa(dp30
g15
I1
sg19
S'G'
p31
sg21
I2
sa(dp32
g15
I2
sg19
S'H'
p33
sg21
I2
sa(dp34
g15
I3
sg19
S'I'
p35
sg21
I2
sa(dp36
g15
I0
sg19
S'J'
p37
sg21
I3
sa(dp38
g15
I1
sg19
S'K'
p39
sg21
I3
sa(dp40
g15
I2
sg19
S'L'
p41
sg21
I3
sa(dp42
g15
I11
sg19
S'M'
p43
sg21
I3
sa(dp44
g15
I20
sg19
S'N'
p45
sg21
I4
sa(dp46
g15
I1
sg19
S'O'
p47
sg21
I4
sa(dp48
g15
I2
sg19
S'P'
p49
sg21
I4
sa(dp50
g15
I3
sg19
S'Q'
p51
sg21
I4
sa(dp52
g15
I4
sg19
S'R'
p53
sg21
I4
sa(dp54
g15
I5
sg19
S'S'
p55
sg21
I4
sa(dp56
g15
I6
sg19
S'T'
p57
sg21
I4
sa(dp58
g15
I7
sg19
S'U'
p59
sg21
I4
sa(dp60
g15
I8
sg19
S'V'
p61
sg21
I4
sa(dp62
g15
I9
sg19
S'W'
p63
sg21
I4
sa(dp64
g15
I10
sg19
S'X'
p65
sg21
I4
sa(dp66
g15
I11
sg19
S'Y'
p67
sg21
I4
sasS'n_addresses'
p68
I25
sS'timeline'
p69
(lp70
(dp71
S'B'
p72
I255
sS'E'
p73
I189
sa(dp74
S'B'
p75
I255
sS'E'
p76
I172
sa(dp77
S'B'
p78
I255
sS'E'
p79
I155
sa(dp80
S'B'
p81
I255
sS'E'
p82
I137
sa(dp83
S'B'
p84
I255
sS'E'
p85
I120
sa(dp86
S'B'
p87
I255
sS'E'
p88
I103
sa(dp89
S'B'
p90
I255
sS'E'
p91
I86
sa(dp92
S'B'
p93
I255
sS'E'
p94
I69
sa(dp95
S'B'
p96
I255
sS'E'
p97
I52
sa(dp98
S'B'
p99
I255
sS'E'
p100
I34
sa(dp101
S'B'
p102
I255
sS'E'
p103
I17
sa(dp104
S'B'
p105
I0
sS'E'
p106
I0
sa(dp107
S'B'
p108
I255
sS'E'
p109
I189
sa(dp110
S'B'
p111
I255
sS'E'
p112
I172
sa(dp113
S'B'
p114
I255
sS'E'
p115
I155
sa(dp116
S'B'
p117
I255
sS'E'
p118
I137
sa(dp119
S'B'
p120
I255
sS'E'
p121
I120
sa(dp122
S'B'
p123
I255
sS'E'
p124
I103
sa(dp125
S'B'
p126
I255
sS'E'
p127
I86
sa(dp128
S'B'
p129
I255
sS'E'
p130
I69
sa(dp131
S'B'
p132
I255
sS'E'
p133
I52
sa(dp134
S'B'
p135
I255
sS'E'
p136
I34
sa(dp137
S'B'
p138
I255
sS'E'
p139
I17
sa(dp140
S'B'
p141
I0
sS'E'
p142
I0
sa(dp143
S'B'
p144
I255
sS'E'
p145
I189
sa(dp146
S'B'
p147
I255
sS'E'
p148
I172
sa(dp149
S'B'
p150
I255
sS'E'
p151
I155
sa(dp152
S'B'
p153
I255
sS'E'
p154
I137
sa(dp155
S'B'
p156
I255
sS'E'
p157
I120
sa(dp158
S'B'
p159
I255
sS'E'
p160
I103
sa(dp161
S'B'
p162
I255
sS'E'
p163
I86
sa(dp164
S'B'
p165
I255
sS'E'
p166
I69
sa(dp167
S'B'
p168
I255
sS'E'
p169
I52
sa(dp170
S'B'
p171
I255
sS'E'
p172
I34
sa(dp173
S'B'
p174
I255
sS'E'
p175
I17
sa(dp176
S'B'
p177
I0
sS'E'
p178
I0
sa(dp179
S'B'
p180
I255
sS'E'
p181
I189
sa(dp182
S'B'
p183
I255
sS'E'
p184
I172
sa(dp185
S'B'
p186
I255
sS'E'
p187
I155
sa(dp188
S'B'
p189
I255
sS'E'
p190
I137
sa(dp191
S'B'
p192
I255
sS'E'
p193
I120
sa(dp194
S'B'
p195
I255
sS'E'
p196
I103
sa(dp197
S'B'
p198
I255
sS'E'
p199
I86
sa(dp200
S'B'
p201
I255
sS'E'
p202
I69
sa(dp203
S'B'
p204
I255
sS'E'
p205
I52
sa(dp206
S'B'
p207
I255
sS'E'
p208
I34
sa(dp209
S'B'
p210
I255
sS'E'
p211
I17
sa(dp212
S'B'
p213
I0
sS'E'
p214
I0
sa(dp215
S'B'
p216
I255
sS'E'
p217
I189
sa(dp218
S'B'
p219
I255
sS'E'
p220
I172
sa(dp221
S'B'
p222
I255
sS'E'
p223
I155
sa(dp224
S'B'
p225
I255
sS'E'
p226
I137
sa(dp227
S'B'
p228
I255
sS'E'
p229
I120
sa(dp230
S'B'
p231
I255
sS'E'
p232
I103
sa(dp233
S'B'
p234
I255
sS'E'
p235
I86
sa(dp236
S'B'
p237
I255
sS'E'
p238
I69
sa(dp239
S'B'
p240
I255
sS'E'
p241
I52
sa(dp242
S'B'
p243
I255
sS'E'
p244
I34
sa(dp245
S'B'
p246
I255
sS'E'
p247
I17
sa(dp248
S'B'
p249
I0
sS'E'
p250
I0
sa(dp251
S'B'
p252
I255
sS'E'
p253
I189
sa(dp254
S'B'
p255
I255
sS'E'
p256
I172
sa(dp257
S'B'
p258
I255
sS'E'
p259
I155
sa(dp260
S'B'
p261
I255
sS'E'
p262
I137
sa(dp263
S'B'
p264
I255
sS'E'
p265
I120
sa(dp266
S'B'
p267
I255
sS'E'
p268
I103
sa(dp269
S'B'
p270
I255
sS'E'
p271
I86
sa(dp272
S'B'
p273
I255
sS'E'
p274
I69
sa(dp275
S'B'
p276
I255
sS'E'
p277
I52
sa(dp278
S'B'
p279
I255
sS'E'
p280
I34
sa(dp281
S'B'
p282
I255
sS'E'
p283
I17
sa(dp284
S'B'
p285
I0
sS'E'
p286
I0
sa(dp287
S'B'
p288
I255
sS'E'
p289
I189
sa(dp290
S'B'
p291
I255
sS'E'
p292
I172
sa(dp293
S'B'
p294
I255
sS'E'
p295
I155
sa(dp296
S'B'
p297
I255
sS'E'
p298
I137
sa(dp299
S'B'
p300
I255
sS'E'
p301
I120
sa(dp302
S'B'
p303
I255
sS'E'
p304
I103
sa(dp305
S'B'
p306
I255
sS'E'
p307
I86
sa(dp308
S'B'
p309
I255
sS'E'
p310
I69
sa(dp311
S'B'
p312
I255
sS'E'
p313
I52
sa(dp314
S'B'
p315
I255
sS'E'
p316
I34
sa(dp317
S'B'
p318
I255
sS'E'
p319
I17
sa(dp320
S'B'
p321
I0
sS'E'
p322
I0
sa(dp323
S'B'
p324
I255
sS'E'
p325
I189
sa(dp326
S'B'
p327
I255
sS'E'
p328
I172
sa(dp329
S'B'
p330
I255
sS'E'
p331
I155
sa(dp332
S'B'
p333
I255
sS'E'
p334
I137
sa(dp335
S'B'
p336
I255
sS'E'
p337
I120
sa(dp338
S'B'
p339
I255
sS'E'
p340
I103
sa(dp341
S'B'
p342
I255
sS'E'
p343
I86
sa(dp344
S'B'
p345
I255
sS'E'
p346
I69
sa(dp347
S'B'
p348
I255
sS'E'
p349
I52
sa(dp350
S'B'
p351
I255
sS'E'
p352
I34
sa(dp353
S'B'
p354
I255
sS'E'
p355
I17
sa(dp356
S'B'
p357
I0
sS'E'
p358
I0
sa(dp359
S'B'
p360
I255
sS'E'
p361
I189
sa(dp362
S'B'
p363
I255
sS'E'
p364
I172
sa(dp365
S'B'
p366
I255
sS'E'
p367
I155
sa(dp368
S'B'
p369
I255
sS'E'
p370
I137
sa(dp371
S'B'
p372
I255
sS'E'
p373
I120
sa(dp374
S'B'
p375
I255
sS'E'
p376
I103
sa(dp377
S'B'
p378
I255
sS'E'
p379
I86
sa(dp380
S'B'
p381
I255
sS'E'
p382
I69
sa(dp383
S'B'
p384
I255
sS'E'
p385
I52
sa(dp386
S'B'
p387
I255
sS'E'
p388
I34
sa(dp389
S'B'
p390
I255
sS'E'
p391
I17
sa(dp392
S'B'
p393
I0
sS'E'
p394
I0
sa(dp395
S'B'
p396
I255
sS'E'
p397
I189
sa(dp398
S'B'
p399
I255
sS'E'
p400
I172
sa(dp401
S'B'
p402
I255
sS'E'
p403
I155
sa(dp404
S'B'
p405
I255
sS'E'
p406
I137
sa(dp407
S'B'
p408
I255
sS'E'
p409
I120
sa(dp410
S'B'
p411
I255
sS'E'
p412
I103
sa(dp413
S'B'
p414
I255
sS'E'
p415
I86
sa(dp416
S'B'
p417
I255
sS'E'
p418
I69
sa(dp419
S'B'
p420
I255
sS'E'
p421
I52
sa(dp422
S'B'
p423
I255
sS'E'
p424
I34
sa(dp425
S'B'
p426
I255
sS'E'
p427
I17
sa(dp428
S'B'
p429
I0
sS'E'
p430
I0
sa(dp431
S'B'
p432
I255
sS'E'
p433
I189
sa(dp434
S'B'
p435
I255
sS'E'
p436
I172
sa(dp437
S'B'
p438
I255
sS'E'
p439
I155
sa(dp440
S'B'
p441
I255
sS'E'
p442
I137
sa(dp443
S'B'
p444
I255
sS'E'
p445
I120
sa(dp446
S'B'
p447
I255
sS'E'
p448
I103
sa(dp449
S'B'
p450
I255
sS'E'
p451
I86
sa(dp452
S'B'
p453
I255
sS'E'
p454
I69
sa(dp455
S'B'
p456
I255
sS'E'
p457
I52
sa(dp458
S'B'
p459
I255
sS'E'
p460
I34
sa(dp461
S'B'
p462
I255
sS'E'
p463
I17
sa(dp464
S'B'
p465
I0
sS'E'
p466
I0
sa(dp467
S'B'
p468
I255
sS'E'
p469
I189
sa(dp470
S'B'
p471
I255
sS'E'
p472
I172
sa(dp473
S'B'
p474
I255
sS'E'
p475
I155
sa(dp476
S'B'
p477
I255
sS'E'
p478
I137
sa(dp479
S'B'
p480
I255
sS'E'
p481
I120
sa(dp482
S'B'
p483
I255
sS'E'
p484
I103
sa(dp485
S'B'
p486
I255
sS'E'
p487
I86
sa(dp488
S'B'
p489
I255
sS'E'
p490
I69
sa(dp491
S'B'
p492
I255
sS'E'
p493
I52
sa(dp494
S'B'
p495
I255
sS'E'
p496
I34
sa(dp497
S'B'
p498
I255
sS'E'
p499
I17
sa(dp500
S'B'
p501
I0
sS'E'
p502
I0
sa(dp503
S'B'
p504
I255
sS'E'
p505
I189
sa(dp506
S'B'
p507
I255
sS'E'
p508
I172
sa(dp509
S'B'
p510
I255
sS'E'
p511
I155
sa(dp512
S'B'
p513
I255
sS'E'
p514
I137
sa(dp515
S'B'
p516
I255
sS'E'
p517
I120
sa(dp518
S'B'
p519
I255
sS'E'
p520
I103
sa(dp521
S'B'
p522
I255
sS'E'
p523
I86
sa(dp524
S'B'
p525
I255
sS'E'
p526
I69
sa(dp527
S'B'
p528
I255
sS'E'
p529
I52
sa(dp530
S'B'
p531
I255
sS'E'
p532
I34
sa(dp533
S'B'
p534
I255
sS'E'
p535
I17
sa(dp536
S'B'
p537
I0
sS'E'
p538
I0
sa(dp539
S'B'
p540
I255
sS'E'
p541
I189
sa(dp542
S'B'
p543
I255
sS'E'
p544
I172
sa(dp545
S'B'
p546
I255
sS'E'
p547
I155
sa(dp548
S'B'
p549
I255
sS'E'
p550
I137
sa(dp551
S'B'
p552
I255
sS'E'
p553
I120
sa(dp554
S'B'
p555
I255
sS'E'
p556
I103
sa(dp557
S'B'
p558
I255
sS'E'
p559
I86
sa(dp560
S'B'
p561
I255
sS'E'
p562
I69
sa(dp563
S'B'
p564
I255
sS'E'
p565
I52
sa(dp566
S'B'
p567
I255
sS'E'
p568
I34
sa(dp569
S'B'
p570
I255
sS'E'
p571
I17
sa(dp572
S'B'
p573
I0
sS'E'
p574
I0
sa(dp575
S'B'
p576
I255
sS'E'
p577
I189
sa(dp578
S'B'
p579
I255
sS'E'
p580
I172
sa(dp581
S'B'
p582
I255
sS'E'
p583
I155
sa(dp584
S'B'
p585
I255
sS'E'
p586
I137
sa(dp587
S'B'
p588
I255
sS'E'
p589
I120
sa(dp590
S'B'
p591
I255
sS'E'
p592
I103
sa(dp593
S'B'
p594
I255
sS'E'
p595
I86
sa(dp596
S'B'
p597
I255
sS'E'
p598
I69
sa(dp599
S'B'
p600
I255
sS'E'
p601
I52
sa(dp602
S'B'
p603
I255
sS'E'
p604
I34
sa(dp605
S'B'
p606
I255
sS'E'
p607
I17
sa(dp608
S'B'
p609
I0
sS'E'
p610
I0
sa(dp611
S'B'
p612
I255
sS'E'
p613
I189
sa(dp614
S'B'
p615
I255
sS'E'
p616
I172
sa(dp617
S'B'
p618
I255
sS'E'
p619
I155
sa(dp620
S'B'
p621
I255
sS'E'
p622
I137
sa(dp623
S'B'
p624
I255
sS'E'
p625
I120
sa(dp626
S'B'
p627
I255
sS'E'
p628
I103
sa(dp629
S'B'
p630
I255
sS'E'
p631
I86
sa(dp632
S'B'
p633
I255
sS'E'
p634
I69
sa(dp635
S'B'
p636
I255
sS'E'
p637
I52
sa(dp638
S'B'
p639
I255
sS'E'
p640
I34
sa(dp641
S'B'
p642
I255
sS'E'
p643
I17
sa(dp644
S'B'
p645
I0
sS'E'
p646
I0
sa(dp647
S'B'
p648
I255
sS'E'
p649
I189
sa(dp650
S'B'
p651
I255
sS'E'
p652
I172
sa(dp653
S'B'
p654
I255
sS'E'
p655
I155
sa(dp656
S'B'
p657
I255
sS'E'
p658
I137
sa(dp659
S'B'
p660
I255
sS'E'
p661
I120
sa(dp662
S'B'
p663
I255
sS'E'
p664
I103
sa(dp665
S'B'
p666
I255
sS'E'
p667
I86
sa(dp668
S'B'
p669
I255
sS'E'
p670
I69
sa(dp671
S'B'
p672
I255
sS'E'
p673
I52
sa(dp674
S'B'
p675
I255
sS'E'
p676
I34
sa(dp677
S'B'
p678
I255
sS'E'
p679
I17
sa(dp680
S'B'
p681
I0
sS'E'
p682
I0
sa(dp683
S'B'
p684
I255
sS'E'
p685
I189
sa(dp686
S'B'
p687
I255
sS'E'
p688
I172
sa(dp689
S'B'
p690
I255
sS'E'
p691
I155
sa(dp692
S'B'
p693
I255
sS'E'
p694
I137
sa(dp695
S'B'
p696
I255
sS'E'
p697
I120
sa(dp698
S'B'
p699
I255
sS'E'
p700
I103
sa(dp701
S'B'
p702
I255
sS'E'
p703
I86
sa(dp704
S'B'
p705
I255
sS'E'
p706
I69
sa(dp707
S'B'
p708
I255
sS'E'
p709
I52
sa(dp710
S'B'
p711
I255
sS'E'
p712
I34
sa(dp713
S'B'
p714
I255
sS'E'
p715
I17
sa(dp716
S'B'
p717
I0
sS'E'
p718
I0
sa(dp719
S'B'
p720
I255
sS'E'
p721
I189
sa(dp722
S'B'
p723
I255
sS'E'
p724
I172
sa(dp725
S'B'
p726
I255
sS'E'
p727
I155
sa(dp728
S'B'
p729
I255
sS'E'
p730
I137
sa(dp731
S'B'
p732
I255
sS'E'
p733
I120
sa(dp734
S'B'
p735
I255
sS'E'
p736
I103
sa(dp737
S'B'
p738
I255
sS'E'
p739
I86
sa(dp740
S'B'
p741
I255
sS'E'
p742
I69
sa(dp743
S'B'
p744
I255
sS'E'
p745
I52
sa(dp746
S'B'
p747
I255
sS'E'
p748
I34
sa(dp749
S'B'
p750
I255
sS'E'
p751
I17
sa(dp752
S'B'
p753
I0
sS'E'
p754
I0
sa(dp755
S'B'
p756
I255
sS'E'
p757
I189
sa(dp758
S'B'
p759
I255
sS'E'
p760
I172
sa(dp761
S'B'
p762
I255
sS'E'
p763
I155
sa(dp764
S'B'
p765
I255
sS'E'
p766
I137
sa(dp767
S'B'
p768
I255
sS'E'
p769
I120
sa(dp770
S'B'
p771
I255
sS'E'
p772
I103
sa(dp773
S'B'
p774
I255
sS'E'
p775
I86
sa(dp776
S'B'
p777
I255
sS'E'
p778
I69
sa(dp779
S'B'
p780
I255
sS'E'
p781
I52
sa(dp782
S'B'
p783
I255
sS'E'
p784
I34
sa(dp785
S'B'
p786
I255
sS'E'
p787
I17
sa(dp788
S'B'
p789
I0
sS'E'
p790
I0
sa(dp791
S'B'
p792
I255
sS'E'
p793
I189
sa(dp794
S'B'
p795
I255
sS'E'
p796
I172
sa(dp797
S'B'
p798
I255
sS'E'
p799
I155
sa(dp800
S'B'
p801
I255
sS'E'
p802
I137
sa(dp803
S'B'
p804
I255
sS'E'
p805
I120
sa(dp806
S'B'
p807
I255
sS'E'
p808
I103
sa(dp809
S'B'
p810
I255
sS'E'
p811
I86
sa(dp812
S'B'
p813
I255
sS'E'
p814
I69
sa(dp815
S'B'
p816
I255
sS'E'
p817
I52
sa(dp818
S'B'
p819
I255
sS'E'
p820
I34
sa(dp821
S'B'
p822
I255
sS'E'
p823
I17
sa(dp824
S'B'
p825
I0
sS'E'
p826
I0
sa(dp827
S'B'
p828
I255
sS'E'
p829
I189
sa(dp830
S'B'
p831
I255
sS'E'
p832
I172
sa(dp833
S'B'
p834
I255
sS'E'
p835
I155
sa(dp836
S'B'
p837
I255
sS'E'
p838
I137
sa(dp839
S'B'
p840
I255
sS'E'
p841
I120
sa(dp842
S'B'
p843
I255
sS'E'
p844
I103
sa(dp845
S'B'
p846
I255
sS'E'
p847
I86
sa(dp848
S'B'
p849
I255
sS'E'
p850
I69
sa(dp851
S'B'
p852
I255
sS'E'
p853
I52
sa(dp854
S'B'
p855
I255
sS'E'
p856
I34
sa(dp857
S'B'
p858
I255
sS'E'
p859
I17
sa(dp860
S'B'
p861
I0
sS'E'
p862
I0
sa(dp863
S'B'
p864
I255
sS'E'
p865
I189
sa(dp866
S'B'
p867
I255
sS'E'
p868
I172
sa(dp869
S'B'
p870
I255
sS'E'
p871
I155
sa(dp872
S'B'
p873
I255
sS'E'
p874
I137
sa(dp875
S'B'
p876
I255
sS'E'
p877
I120
sa(dp878
S'B'
p879
I255
sS'E'
p880
I103
sa(dp881
S'B'
p882
I255
sS'E'
p883
I86
sa(dp884
S'B'
p885
I255
sS'E'
p886
I69
sa(dp887
S'B'
p888
I255
sS'E'
p889
I52
sa(dp890
S'B'
p891
I255
sS'E'
p892
I34
sa(dp893
S'B'
p894
I255
sS'E'
p895
I17
sa(dp896
S'B'
p897
I0
sS'E'
p898
I0
sa(dp899
S'B'
p900
I255
sS'E'
p901
I189
sa(dp902
S'B'
p903
I255
sS'E'
p904
I172
sa(dp905
S'B'
p906
I255
sS'E'
p907
I155
sa(dp908
S'B'
p909
I255
sS'E'
p910
I137
sa(dp911
S'B'
p912
I255
sS'E'
p913
I120
sa(dp914
S'B'
p915
I255
sS'E'
p916
I103
sa(dp917
S'B'
p918
I255
sS'E'
p919
I86
sa(dp920
S'B'
p921
I255
sS'E'
p922
I69
sa(dp923
S'B'
p924
I255
sS'E'
p925
I52
sa(dp926
S'B'
p927
I255
sS'E'
p928
I34
sa(dp929
S'B'
p930
I255
sS'E'
p931
I17
sa(dp932
S'B'
p933
I0
sS'E'
p934
I0
sa(dp935
S'B'
p936
I255
sS'E'
p937
I189
sa(dp938
S'B'
p939
I255
sS'E'
p940
I172
sa(dp941
S'B'
p942
I255
sS'E'
p943
I155
sa(dp944
S'B'
p945
I255
sS'E'
p946
I137
sa(dp947
S'B'
p948
I255
sS'E'
p949
I120
sa(dp950
S'B'
p951
I255
sS'E'
p952
I103
sa(dp953
S'B'
p954
I255
sS'E'
p955
I86
sa(dp956
S'B'
p957
I255
sS'E'
p958
I69
sa(dp959
S'B'
p960
I255
sS'E'
p961
I52
sa(dp962
S'B'
p963
I255
sS'E'
p964
I34
sa(dp965
S'B'
p966
I255
sS'E'
p967
I17
sa(dp968
S'B'
p969
I0
sS'E'
p970
I0
sa(dp971
S'B'
p972
I255
sS'E'
p973
I189
sa(dp974
S'B'
p975
I255
sS'E'
p976
I172
sa(dp977
S'B'
p978
I255
sS'E'
p979
I155
sa(dp980
S'B'
p981
I255
sS'E'
p982
I137
sa(dp983
S'B'
p984
I255
sS'E'
p985
I120
sa(dp986
S'B'
p987
I255
sS'E'
p988
I103
sa(dp989
S'B'
p990
I255
sS'E'
p991
I86
sa(dp992
S'B'
p993
I255
sS'E'
p994
I69
sa(dp995
S'B'
p996
I255
sS'E'
p997
I52
sa(dp998
S'B'
p999
I255
sS'E'
p1000
I34
sa(dp1001
S'B'
p1002
I255
sS'E'
p1003
I17
sa(dp1004
S'B'
p1005
I0
sS'E'
p1006
I0
sa(dp1007
S'B'
p1008
I255
sS'E'
p1009
I189
sa(dp1010
S'B'
p1011
I255
sS'E'
p1012
I172
sa(dp1013
S'B'
p1014
I255
sS'E'
p1015
I155
sa(dp1016
S'B'
p1017
I255
sS'E'
p1018
I137
sa(dp1019
S'B'
p1020
I255
sS'E'
p1021
I120
sa(dp1022
S'B'
p1023
I255
sS'E'
p1024
I103
sa(dp1025
S'B'
p1026
I255
sS'E'
p1027
I86
sa(dp1028
S'B'
p1029
I255
sS'E'
p1030
I69
sa(dp1031
S'B'
p1032
I255
sS'E'
p1033
I52
sa(dp1034
S'B'
p1035
I255
sS'E'
p1036
I34
sa(dp1037
S'B'
p1038
I255
sS'E'
p1039
I17
sa(dp1040
S'B'
p1041
I0
sS'E'
p1042
I0
sa(dp1043
S'B'
p1044
I255
sS'E'
p1045
I189
sa(dp1046
S'B'
p1047
I255
sS'E'
p1048
I172
sa(dp1049
S'B'
p1050
I255
sS'E'
p1051
I155
sa(dp1052
S'B'
p1053
I255
sS'E'
p1054
I137
sa(dp1055
S'B'
p1056
I255
sS'E'
p1057
I120
sa(dp1058
S'B'
p1059
I255
sS'E'
p1060
I103
sa(dp1061
S'B'
p1062
I255
sS'E'
p1063
I86
sa(dp1064
S'B'
p1065
I255
sS'E'
p1066
I69
sa(dp1067
S'B'
p1068
I255
sS'E'
p1069
I52
sa(dp1070
S'B'
p1071
I255
sS'E'
p1072
I34
sa(dp1073
S'B'
p1074
I255
sS'E'
p1075
I17
sa(dp1076
S'B'
p1077
I0
sS'E'
p1078
I0
sa(dp1079
S'B'
p1080
I255
sS'E'
p1081
I189
sa(dp1082
S'B'
p1083
I255
sS'E'
p1084
I172
sa(dp1085
S'B'
p1086
I255
sS'E'
p1087
I155
sa(dp1088
S'B'
p1089
I255
sS'E'
p1090
I137
sa(dp1091
S'B'
p1092
I255
sS'E'
p1093
I120
sa(dp1094
S'B'
p1095
I255
sS'E'
p1096
I103
sa(dp1097
S'B'
p1098
I255
sS'E'
p1099
I86
sa(dp1100
S'B'
p1101
I255
sS'E'
p1102
I69
sa(dp1103
S'B'
p1104
I255
sS'E'
p1105
I52
sa(dp1106
S'B'
p1107
I255
sS'E'
p1108
I34
sa(dp1109
S'B'
p1110
I255
sS'E'
p1111
I17
sa(dp1112
S'B'
p1113
I0
sS'E'
p1114
I0
sa(dp1115
S'B'
p1116
I255
sS'E'
p1117
I189
sa(dp1118
S'B'
p1119
I255
sS'E'
p1120
I172
sa(dp1121
S'B'
p1122
I255
sS'E'
p1123
I155
sa(dp1124
S'B'
p1125
I255
sS'E'
p1126
I137
sa(dp1127
S'B'
p1128
I255
sS'E'
p1129
I120
sa(dp1130
S'B'
p1131
I255
sS'E'
p1132
I103
sa(dp1133
S'B'
p1134
I255
sS'E'
p1135
I86
sa(dp1136
S'B'
p1137
I255
sS'E'
p1138
I69
sa(dp1139
S'B'
p1140
I255
sS'E'
p1141
I52
sa(dp1142
S'B'
p1143
I255
sS'E'
p1144
I34
sa(dp1145
S'B'
p1146
I255
sS'E'
p1147
I17
sa(dp1148
S'B'
p1149
I0
sS'E'
p1150
I0
sa(dp1151
S'B'
p1152
I255
sS'E'
p1153
I189
sa(dp1154
S'B'
p1155
I255
sS'E'
p1156
I172
sa(dp1157
S'B'
p1158
I255
sS'E'
p1159
I155
sa(dp1160
S'B'
p1161
I255
sS'E'
p1162
I137
sa(dp1163
S'B'
p1164
I255
sS'E'
p1165
I120
sa(dp1166
S'B'
p1167
I255
sS'E'
p1168
I103
sa(dp1169
S'B'
p1170
I255
sS'E'
p1171
I86
sa(dp1172
S'B'
p1173
I255
sS'E'
p1174
I69
sa(dp1175
S'B'
p1176
I255
sS'E'
p1177
I52
sa(dp1178
S'B'
p1179
I255
sS'E'
p1180
I34
sa(dp1181
S'B'
p1182
I255
sS'E'
p1183
I17
sa(dp1184
S'B'
p1185
I0
sS'E'
p1186
I0
sa(dp1187
S'B'
p1188
I255
sS'E'
p1189
I189
sa(dp1190
S'B'
p1191
I255
sS'E'
p1192
I172
sa(dp1193
S'B'
p1194
I255
sS'E'
p1195
I155
sa(dp1196
S'B'
p1197
I255
sS'E'
p1198
I137
sa(dp1199
S'B'
p1200
I255
sS'E'
p1201
I120
sa(dp1202
S'B'
p1203
I255
sS'E'
p1204
I103
sa(dp1205
S'B'
p1206
I255
sS'E'
p1207
I86
sa(dp1208
S'B'
p1209
I255
sS'E'
p1210
I69
sa(dp1211
S'B'
p1212
I255
sS'E'
p1213
I52
sa(dp1214
S'B'
p1215
I255
sS'E'
p1216
I34
sa(dp1217
S'B'
p1218
I255
sS'E'
p1219
I17
sa(dp1220
S'B'
p1221
I0
sS'E'
p1222
I0
sa(dp1223
S'B'
p1224
I255
sS'E'
p1225
I189
sa(dp1226
S'B'
p1227
I255
sS'E'
p1228
I172
sa(dp1229
S'B'
p1230
I255
sS'E'
p1231
I155
sa(dp1232
S'B'
p1233
I255
sS'E'
p1234
I137
sa(dp1235
S'B'
p1236
I255
sS'E'
p1237
I120
sa(dp1238
S'B'
p1239
I255
sS'E'
p1240
I103
sa(dp1241
S'B'
p1242
I255
sS'E'
p1243
I86
sa(dp1244
S'B'
p1245
I255
sS'E'
p1246
I69
sa(dp1247
S'B'
p1248
I255
sS'E'
p1249
I52
sa(dp1250
S'B'
p1251
I255
sS'E'
p1252
I34
sa(dp1253
S'B'
p1254
I255
sS'E'
p1255
I17
sa(dp1256
S'B'
p1257
I0
sS'E'
p1258
I0
sa(dp1259
S'B'
p1260
I255
sS'E'
p1261
I189
sa(dp1262
S'B'
p1263
I255
sS'E'
p1264
I172
sa(dp1265
S'B'
p1266
I255
sS'E'
p1267
I155
sa(dp1268
S'B'
p1269
I255
sS'E'
p1270
I137
sa(dp1271
S'B'
p1272
I255
sS'E'
p1273
I120
sa(dp1274
S'B'
p1275
I255
sS'E'
p1276
I103
sa(dp1277
S'B'
p1278
I255
sS'E'
p1279
I86
sa(dp1280
S'B'
p1281
I255
sS'E'
p1282
I69
sa(dp1283
S'B'
p1284
I255
sS'E'
p1285
I52
sa(dp1286
S'B'
p1287
I255
sS'E'
p1288
I34
sa(dp1289
S'B'
p1290
I255
sS'E'
p1291
I17
sa(dp1292
S'B'
p1293
I0
sS'E'
p1294
I0
sa(dp1295
S'B'
p1296
I255
sS'E'
p1297
I189
sa(dp1298
S'B'
p1299
I255
sS'E'
p1300
I172
sa(dp1301
S'B'
p1302
I255
sS'E'
p1303
I155
sa(dp1304
S'B'
p1305
I255
sS'E'
p1306
I137
sa(dp1307
S'B'
p1308
I255
sS'E'
p1309
I120
sa(dp1310
S'B'
p1311
I255
sS'E'
p1312
I103
sa(dp1313
S'B'
p1314
I255
sS'E'
p1315
I86
sa(dp1316
S'B'
p1317
I255
sS'E'
p1318
I69
sa(dp1319
S'B'
p1320
I255
sS'E'
p1321
I52
sa(dp1322
S'B'
p1323
I255
sS'E'
p1324
I34
sa(dp1325
S'B'
p1326
I255
sS'E'
p1327
I17
sa(dp1328
S'B'
p1329
I0
sS'E'
p1330
I0
sa(dp1331
S'B'
p1332
I255
sS'E'
p1333
I189
sa(dp1334
S'B'
p1335
I255
sS'E'
p1336
I172
sa(dp1337
S'B'
p1338
I255
sS'E'
p1339
I155
sa(dp1340
S'B'
p1341
I255
sS'E'
p1342
I137
sa(dp1343
S'B'
p1344
I255
sS'E'
p1345
I120
sa(dp1346
S'B'
p1347
I255
sS'E'
p1348
I103
sa(dp1349
S'B'
p1350
I255
sS'E'
p1351
I86
sa(dp1352
S'B'
p1353
I255
sS'E'
p1354
I69
sa(dp1355
S'B'
p1356
I255
sS'E'
p1357
I52
sa(dp1358
S'B'
p1359
I255
sS'E'
p1360
I34
sa(dp1361
S'B'
p1362
I255
sS'E'
p1363
I17
sa(dp1364
S'B'
p1365
I0
sS'E'
p1366
I0
sa(dp1367
S'B'
p1368
I255
sS'E'
p1369
I189
sa(dp1370
S'B'
p1371
I255
sS'E'
p1372
I172
sa(dp1373
S'B'
p1374
I255
sS'E'
p1375
I155
sa(dp1376
S'B'
p1377
I255
sS'E'
p1378
I137
sa(dp1379
S'B'
p1380
I255
sS'E'
p1381
I120
sa(dp1382
S'B'
p1383
I255
sS'E'
p1384
I103
sa(dp1385
S'B'
p1386
I255
sS'E'
p1387
I86
sa(dp1388
S'B'
p1389
I255
sS'E'
p1390
I69
sa(dp1391
S'B'
p1392
I255
sS'E'
p1393
I52
sa(dp1394
S'B'
p1395
I255
sS'E'
p1396
I34
sa(dp1397
S'B'
p1398
I255
sS'E'
p1399
I17
sa(dp1400
S'B'
p1401
I0
sS'E'
p1402
I0
sa(dp1403
S'B'
p1404
I255
sS'E'
p1405
I189
sa(dp1406
S'B'
p1407
I255
sS'E'
p1408
I172
sa(dp1409
S'B'
p1410
I255
sS'E'
p1411
I155
sa(dp1412
S'B'
p1413
I255
sS'E'
p1414
I137
sa(dp1415
S'B'
p1416
I255
sS'E'
p1417
I120
sa(dp1418
S'B'
p1419
I255
sS'E'
p1420
I103
sa(dp1421
S'B'
p1422
I255
sS'E'
p1423
I86
sa(dp1424
S'B'
p1425
I255
sS'E'
p1426
I69
sa(dp1427
S'B'
p1428
I255
sS'E'
p1429
I52
sa(dp1430
S'B'
p1431
I255
sS'E'
p1432
I34
sa(dp1433
S'B'
p1434
I255
sS'E'
p1435
I17
sa(dp1436
S'B'
p1437
I0
sS'E'
p1438
I0
sa(dp1439
S'B'
p1440
I255
sS'E'
p1441
I189
sa(dp1442
S'B'
p1443
I255
sS'E'
p1444
I172
sa(dp1445
S'B'
p1446
I255
sS'E'
p1447
I155
sa(dp1448
S'B'
p1449
I255
sS'E'
p1450
I137
sa(dp1451
S'B'
p1452
I255
sS'E'
p1453
I120
sa(dp1454
S'B'
p1455
I255
sS'E'
p1456
I103
sa(dp1457
S'B'
p1458
I255
sS'E'
p1459
I86
sa(dp1460
S'B'
p1461
I255
sS'E'
p1462
I69
sa(dp1463
S'B'
p1464
I255
sS'E'
p1465
I52
sa(dp1466
S'B'
p1467
I255
sS'E'
p1468
I34
sa(dp1469
S'B'
p1470
I255
sS'E'
p1471
I17
sa(dp1472
S'B'
p1473
I0
sS'E'
p1474
I0
sa(dp1475
S'B'
p1476
I255
sS'E'
p1477
I189
sa(dp1478
S'B'
p1479
I255
sS'E'
p1480
I172
sa(dp1481
S'B'
p1482
I255
sS'E'
p1483
I155
sa(dp1484
S'B'
p1485
I255
sS'E'
p1486
I137
sa(dp1487
S'B'
p1488
I255
sS'E'
p1489
I120
sa(dp1490
S'B'
p1491
I255
sS'E'
p1492
I103
sa(dp1493
S'B'
p1494
I255
sS'E'
p1495
I86
sa(dp1496
S'B'
p1497
I255
sS'E'
p1498
I69
sa(dp1499
S'B'
p1500
I255
sS'E'
p1501
I52
sa(dp1502
S'B'
p1503
I255
sS'E'
p1504
I34
sa(dp1505
S'B'
p1506
I255
sS'E'
p1507
I17
sa(dp1508
S'B'
p1509
I0
sS'E'
p1510
I0
sa(dp1511
S'B'
p1512
I255
sS'E'
p1513
I189
sa(dp1514
S'B'
p1515
I255
sS'E'
p1516
I172
sa(dp1517
S'B'
p1518
I255
sS'E'
p1519
I155
sa(dp1520
S'B'
p1521
I255
sS'E'
p1522
I137
sa(dp1523
S'B'
p1524
I255
sS'E'
p1525
I120
sa(dp1526
S'B'
p1527
I255
sS'E'
p1528
I103
sa(dp1529
S'B'
p1530
I255
sS'E'
p1531
I86
sa(dp1532
S'B'
p1533
I255
sS'E'
p1534
I69
sa(dp1535
S'B'
p1536
I255
sS'E'
p1537
I52
sa(dp1538
S'B'
p1539
I255
sS'E'
p1540
I34
sa(dp1541
S'B'
p1542
I255
sS'E'
p1543
I17
sa(dp1544
S'B'
p1545
I0
sS'E'
p1546
I0
sa(dp1547
S'B'
p1548
I255
sS'E'
p1549
I189
sa(dp1550
S'B'
p1551
I255
sS'E'
p1552
I172
sa(dp1553
S'B'
p1554
I255
sS'E'
p1555
I155
sa(dp1556
S'B'
p1557
I255
sS'E'
p1558
I137
sa(dp1559
S'B'
p1560
I255
sS'E'
p1561
I120
sa(dp1562
S'B'
p1563
I255
sS'E'
p1564
I103
sa(dp1565
S'B'
p1566
I255
sS'E'
p1567
I86
sa(dp1568
S'B'
p1569
I255
sS'E'
p1570
I69
sa(dp1571
S'B'
p1572
I255
sS'E'
p1573
I52
sa(dp1574
S'B'
p1575
I255
sS'E'
p1576
I34
sa(dp1577
S'B'
p1578
I255
sS'E'
p1579
I17
sa(dp1580
S'B'
p1581
I0
sS'E'
p1582
I0
sa(dp1583
S'B'
p1584
I255
sS'E'
p1585
I189
sa(dp1586
S'B'
p1587
I255
sS'E'
p1588
I172
sa(dp1589
S'B'
p1590
I255
sS'E'
p1591
I155
sa(dp1592
S'B'
p1593
I255
sS'E'
p1594
I137
sa(dp1595
S'B'
p1596
I255
sS'E'
p1597
I120
sa(dp1598
S'B'
p1599
I255
sS'E'
p1600
I103
sa(dp1601
S'B'
p1602
I255
sS'E'
p1603
I86
sa(dp1604
S'B'
p1605
I255
sS'E'
p1606
I69
sa(dp1607
S'B'
p1608
I255
sS'E'
p1609
I52
sa(dp1610
S'B'
p1611
I255
sS'E'
p1612
I34
sa(dp1613
S'B'
p1614
I255
sS'E'
p1615
I17
sa(dp1616
S'B'
p1617
I0
sS'E'
p1618
I0
sa(dp1619
S'B'
p1620
I255
sS'E'
p1621
I189
sa(dp1622
S'B'
p1623
I255
sS'E'
p1624
I172
sa(dp1625
S'B'
p1626
I255
sS'E'
p1627
I155
sa(dp1628
S'B'
p1629
I255
sS'E'
p1630
I137
sa(dp1631
S'B'
p1632
I255
sS'E'
p1633
I120
sa(dp1634
S'B'
p1635
I255
sS'E'
p1636
I103
sa(dp1637
S'B'
p1638
I255
sS'E'
p1639
I86
sa(dp1640
S'B'
p1641
I255
sS'E'
p1642
I69
sa(dp1643
S'B'
p1644
I255
sS'E'
p1645
I52
sa(dp1646
S'B'
p1647
I255
sS'E'
p1648
I34
sa(dp1649
S'B'
p1650
I255
sS'E'
p1651
I17
sa(dp1652
S'B'
p1653
I0
sS'E'
p1654
I0
sa(dp1655
S'B'
p1656
I255
sS'E'
p1657
I189
sa(dp1658
S'B'
p1659
I255
sS'E'
p1660
I172
sa(dp1661
S'B'
p1662
I255
sS'E'
p1663
I155
sa(dp1664
S'B'
p1665
I255
sS'E'
p1666
I137
sa(dp1667
S'B'
p1668
I255
sS'E'
p1669
I120
sa(dp1670
S'B'
p1671
I255
sS'E'
p1672
I103
sa(dp1673
S'B'
p1674
I255
sS'E'
p1675
I86
sa(dp1676
S'B'
p1677
I255
sS'E'
p1678
I69
sa(dp1679
S'B'
p1680
I255
sS'E'
p1681
I52
sa(dp1682
S'B'
p1683
I255
sS'E'
p1684
I34
sa(dp1685
S'B'
p1686
I255
sS'E'
p1687
I17
sa(dp1688
S'B'
p1689
I0
sS'E'
p1690
I0
sa(dp1691
S'B'
p1692
I255
sS'E'
p1693
I189
sa(dp1694
S'B'
p1695
I255
sS'E'
p1696
I172
sa(dp1697
S'B'
p1698
I255
sS'E'
p1699
I155
sa(dp1700
S'B'
p1701
I255
sS'E'
p1702
I137
sa(dp1703
S'B'
p1704
I255
sS'E'
p1705
I120
sa(dp1706
S'B'
p1707
I255
sS'E'
p1708
I103
sa(dp1709
S'B'
p1710
I255
sS'E'
p1711
I86
sa(dp1712
S'B'
p1713
I255
sS'E'
p1714
I69
sa(dp1715
S'B'
p1716
I255
sS'E'
p1717
I52
sa(dp1718
S'B'
p1719
I255
sS'E'
p1720
I34
sa(dp1721
S'B'
p1722
I255
sS'E'
p1723
I17
sa(dp1724
S'B'
p1725
I0
sS'E'
p1726
I0
sa(dp1727
S'B'
p1728
I255
sS'E'
p1729
I189
sa(dp1730
S'B'
p1731
I255
sS'E'
p1732
I172
sa(dp1733
S'B'
p1734
I255
sS'E'
p1735
I155
sa(dp1736
S'B'
p1737
I255
sS'E'
p1738
I137
sa(dp1739
S'B'
p1740
I255
sS'E'
p1741
I120
sa(dp1742
S'B'
p1743
I255
sS'E'
p1744
I103
sa(dp1745
S'B'
p1746
I255
sS'E'
p1747
I86
sa(dp1748
S'B'
p1749
I255
sS'E'
p1750
I69
sa(dp1751
S'B'
p1752
I255
sS'E'
p1753
I52
sa(dp1754
S'B'
p1755
I255
sS'E'
p1756
I34
sa(dp1757
S'B'
p1758
I255
sS'E'
p1759
I17
sa(dp1760
S'B'
p1761
I0
sS'E'
p1762
I0
sa(dp1763
S'B'
p1764
I255
sS'E'
p1765
I189
sa(dp1766
S'B'
p1767
I255
sS'E'
p1768
I172
sa(dp1769
S'B'
p1770
I255
sS'E'
p1771
I155
sa(dp1772
S'B'
p1773
I255
sS'E'
p1774
I137
sa(dp1775
S'B'
p1776
I255
sS'E'
p1777
I120
sa(dp1778
S'B'
p1779
I255
sS'E'
p1780
I103
sa(dp1781
S'B'
p1782
I255
sS'E'
p1783
I86
sa(dp1784
S'B'
p1785
I255
sS'E'
p1786
I69
sa(dp1787
S'B'
p1788
I255
sS'E'
p1789
I52
sa(dp1790
S'B'
p1791
I255
sS'E'
p1792
I34
sa(dp1793
S'B'
p1794
I255
sS'E'
p1795
I17
sa(dp1796
S'B'
p1797
I0
sS'E'
p1798
I0
sa(dp1799
S'B'
p1800
I255
sS'E'
p1801
I189
sa(dp1802
S'B'
p1803
I255
sS'E'
p1804
I172
sa(dp1805
S'B'
p1806
I255
sS'E'
p1807
I155
sa(dp1808
S'B'
p1809
I255
sS'E'
p1810
I137
sa(dp1811
S'B'
p1812
I255
sS'E'
p1813
I120
sa(dp1814
S'B'
p1815
I255
sS'E'
p1816
I103
sa(dp1817
S'B'
p1818
I255
sS'E'
p1819
I86
sa(dp1820
S'B'
p1821
I255
sS'E'
p1822
I69
sa(dp1823
S'B'
p1824
I255
sS'E'
p1825
I52
sa(dp1826
S'B'
p1827
I255
sS'E'
p1828
I34
sa(dp1829
S'B'
p1830
I255
sS'E'
p1831
I17
sa(dp1832
S'B'
p1833
I0
sS'E'
p1834
I0
sa(dp1835
S'B'
p1836
I255
sS'E'
p1837
I189
sa(dp1838
S'B'
p1839
I255
sS'E'
p1840
I172
sa(dp1841
S'B'
p1842
I255
sS'E'
p1843
I155
sa(dp1844
S'B'
p1845
I255
sS'E'
p1846
I137
sa(dp1847
S'B'
p1848
I255
sS'E'
p1849
I120
sa(dp1850
S'B'
p1851
I255
sS'E'
p1852
I103
sa(dp1853
S'B'
p1854
I255
sS'E'
p1855
I86
sa(dp1856
S'B'
p1857
I255
sS'E'
p1858
I69
sa(dp1859
S'B'
p1860
I255
sS'E'
p1861
I52
sa(dp1862
S'B'
p1863
I255
sS'E'
p1864
I34
sa(dp1865
S'B'
p1866
I255
sS'E'
p1867
I17
sa(dp1868
S'B'
p1869
I0
sS'E'
p1870
I0
sa(dp1871
S'B'
p1872
I255
sS'E'
p1873
I189
sa(dp1874
S'B'
p1875
I255
sS'E'
p1876
I172
sa(dp1877
S'B'
p1878
I255
sS'E'
p1879
I155
sa(dp1880
S'B'
p1881
I255
sS'E'
p1882
I137
sa(dp1883
S'B'
p1884
I255
sS'E'
p1885
I120
sa(dp1886
S'B'
p1887
I255
sS'E'
p1888
I103
sa(dp1889
S'B'
p1890
I255
sS'E'
p1891
I86
sa(dp1892
S'B'
p1893
I255
sS'E'
p1894
I69
sa(dp1895
S'B'
p1896
I255
sS'E'
p1897
I52
sa(dp1898
S'B'
p1899
I255
sS'E'
p1900
I34
sa(dp1901
S'B'
p1902
I255
sS'E'
p1903
I17
sa(dp1904
S'B'
p1905
I0
sS'E'
p1906
I0
sa(dp1907
S'B'
p1908
I255
sS'E'
p1909
I189
sa(dp1910
S'B'
p1911
I255
sS'E'
p1912
I172
sa(dp1913
S'B'
p1914
I255
sS'E'
p1915
I155
sa(dp1916
S'B'
p1917
I255
sS'E'
p1918
I137
sa(dp1919
S'B'
p1920
I255
sS'E'
p1921
I120
sa(dp1922
S'B'
p1923
I255
sS'E'
p1924
I103
sa(dp1925
S'B'
p1926
I255
sS'E'
p1927
I86
sa(dp1928
S'B'
p1929
I255
sS'E'
p1930
I69
sa(dp1931
S'B'
p1932
I255
sS'E'
p1933
I52
sa(dp1934
S'B'
p1935
I255
sS'E'
p1936
I34
sa(dp1937
S'B'
p1938
I255
sS'E'
p1939
I17
sa(dp1940
S'B'
p1941
I0
sS'E'
p1942
I0
sa(dp1943
S'B'
p1944
I255
sS'E'
p1945
I189
sa(dp1946
S'B'
p1947
I255
sS'E'
p1948
I172
sa(dp1949
S'B'
p1950
I255
sS'E'
p1951
I155
sa(dp1952
S'B'
p1953
I255
sS'E'
p1954
I137
sa(dp1955
S'B'
p1956
I255
sS'E'
p1957
I120
sa(dp1958
S'B'
p1959
I255
sS'E'
p1960
I103
sa(dp1961
S'B'
p1962
I255
sS'E'
p1963
I86
sa(dp1964
S'B'
p1965
I255
sS'E'
p1966
I69
sa(dp1967
S'B'
p1968
I255
sS'E'
p1969
I52
sa(dp1970
S'B'
p1971
I255
sS'E'
p1972
I34
sa(dp1973
S'B'
p1974
I255
sS'E'
p1975
I17
sa(dp1976
S'B'
p1977
I0
sS'E'
p1978
I0
sa(dp1979
S'B'
p1980
I255
sS'E'
p1981
I189
sa(dp1982
S'B'
p1983
I255
sS'E'
p1984
I172
sa(dp1985
S'B'
p1986
I255
sS'E'
p1987
I155
sa(dp1988
S'B'
p1989
I255
sS'E'
p1990
I137
sa(dp1991
S'B'
p1992
I255
sS'E'
p1993
I120
sa(dp1994
S'B'
p1995
I255
sS'E'
p1996
I103
sa(dp1997
S'B'
p1998
I255
sS'E'
p1999
I86
sa(dp2000
S'B'
p2001
I255
sS'E'
p2002
I69
sa(dp2003
S'B'
p2004
I255
sS'E'
p2005
I52
sa(dp2006
S'B'
p2007
I255
sS'E'
p2008
I34
sa(dp2009
S'B'
p2010
I255
sS'E'
p2011
I17
sa(dp2012
S'B'
p2013
I0
sS'E'
p2014
I0
sa(dp2015
S'B'
p2016
I255
sS'E'
p2017
I189
sa(dp2018
S'B'
p2019
I255
sS'E'
p2020
I172
sa(dp2021
S'B'
p2022
I255
sS'E'
p2023
I155
sa(dp2024
S'B'
p2025
I255
sS'E'
p2026
I137
sa(dp2027
S'B'
p2028
I255
sS'E'
p2029
I120
sa(dp2030
S'B'
p2031
I255
sS'E'
p2032
I103
sa(dp2033
S'B'
p2034
I255
sS'E'
p2035
I86
sa(dp2036
S'B'
p2037
I255
sS'E'
p2038
I69
sa(dp2039
S'B'
p2040
I255
sS'E'
p2041
I52
sa(dp2042
S'B'
p2043
I255
sS'E'
p2044
I34
sa(dp2045
S'B'
p2046
I255
sS'E'
p2047
I17
sa(dp2048
S'B'
p2049
I0
sS'E'
p2050
I0
sa(dp2051
S'B'
p2052
I255
sS'E'
p2053
I189
sa(dp2054
S'B'
p2055
I255
sS'E'
p2056
I172
sa(dp2057
S'B'
p2058
I255
sS'E'
p2059
I155
sa(dp2060
S'B'
p2061
I255
sS'E'
p2062
I137
sa(dp2063
S'B'
p2064
I255
sS'E'
p2065
I120
sa(dp2066
S'B'
p2067
I255
sS'E'
p2068
I103
sa(dp2069
S'B'
p2070
I255
sS'E'
p2071
I86
sa(dp2072
S'B'
p2073
I255
sS'E'
p2074
I69
sa(dp2075
S'B'
p2076
I255
sS'E'
p2077
I52
sa(dp2078
S'B'
p2079
I255
sS'E'
p2080
I34
sa(dp2081
S'B'
p2082
I255
sS'E'
p2083
I17
sa(dp2084
S'B'
p2085
I0
sS'E'
p2086
I0
sa(dp2087
S'B'
p2088
I255
sS'E'
p2089
I189
sa(dp2090
S'B'
p2091
I255
sS'E'
p2092
I172
sa(dp2093
S'B'
p2094
I255
sS'E'
p2095
I155
sa(dp2096
S'B'
p2097
I255
sS'E'
p2098
I137
sa(dp2099
S'B'
p2100
I255
sS'E'
p2101
I120
sa(dp2102
S'B'
p2103
I255
sS'E'
p2104
I103
sa(dp2105
S'B'
p2106
I255
sS'E'
p2107
I86
sa(dp2108
S'B'
p2109
I255
sS'E'
p2110
I69
sa(dp2111
S'B'
p2112
I255
sS'E'
p2113
I52
sa(dp2114
S'B'
p2115
I255
sS'E'
p2116
I34
sa(dp2117
S'B'
p2118
I255
sS'E'
p2119
I17
sa(dp2120
S'B'
p2121
I0
sS'E'
p2122
I0
sa(dp2123
S'B'
p2124
I255
sS'E'
p2125
I189
sa(dp2126
S'B'
p2127
I255
sS'E'
p2128
I172
sa(dp2129
S'B'
p2130
I255
sS'E'
p2131
I155
sa(dp2132
S'B'
p2133
I255
sS'E'
p2134
I137
sa(dp2135
S'B'
p2136
I255
sS'E'
p2137
I120
sa(dp2138
S'B'
p2139
I255
sS'E'
p2140
I103
sa(dp2141
S'B'
p2142
I255
sS'E'
p2143
I86
sa(dp2144
S'B'
p2145
I255
sS'E'
p2146
I69
sa(dp2147
S'B'
p2148
I255
sS'E'
p2149
I52
sa(dp2150
S'B'
p2151
I255
sS'E'
p2152
I34
sa(dp2153
S'B'
p2154
I255
sS'E'
p2155
I17
sa(dp2156
S'B'
p2157
I0
sS'E'
p2158
I0
sa(dp2159
S'B'
p2160
I255
sS'E'
p2161
I189
sa(dp2162
S'B'
p2163
I255
sS'E'
p2164
I172
sa(dp2165
S'B'
p2166
I255
sS'E'
p2167
I155
sa(dp2168
S'B'
p2169
I255
sS'E'
p2170
I137
sa(dp2171
S'B'
p2172
I255
sS'E'
p2173
I120
sa(dp2174
S'B'
p2175
I255
sS'E'
p2176
I103
sa(dp2177
S'B'
p2178
I255
sS'E'
p2179
I86
sa(dp2180
S'B'
p2181
I255
sS'E'
p2182
I69
sa(dp2183
S'B'
p2184
I255
sS'E'
p2185
I52
sa(dp2186
S'B'
p2187
I255
sS'E'
p2188
I34
sa(dp2189
S'B'
p2190
I255
sS'E'
p2191
I17
sa(dp2192
S'B'
p2193
I0
sS'E'
p2194
I0
sa(dp2195
S'B'
p2196
I255
sS'E'
p2197
I189
sa(dp2198
S'B'
p2199
I255
sS'E'
p2200
I172
sa(dp2201
S'B'
p2202
I255
sS'E'
p2203
I155
sa(dp2204
S'B'
p2205
I255
sS'E'
p2206
I137
sa(dp2207
S'B'
p2208
I255
sS'E'
p2209
I120
sa(dp2210
S'B'
p2211
I255
sS'E'
p2212
I103
sa(dp2213
S'B'
p2214
I255
sS'E'
p2215
I86
sa(dp2216
S'B'
p2217
I255
sS'E'
p2218
I69
sa(dp2219
S'B'
p2220
I255
sS'E'
p2221
I52
sa(dp2222
S'B'
p2223
I255
sS'E'
p2224
I34
sa(dp2225
S'B'
p2226
I255
sS'E'
p2227
I17
sa(dp2228
S'B'
p2229
I0
sS'E'
p2230
I0
sa(dp2231
S'B'
p2232
I255
sS'E'
p2233
I189
sa(dp2234
S'B'
p2235
I255
sS'E'
p2236
I172
sa(dp2237
S'B'
p2238
I255
sS'E'
p2239
I155
sa(dp2240
S'B'
p2241
I255
sS'E'
p2242
I137
sa(dp2243
S'B'
p2244
I255
sS'E'
p2245
I120
sa(dp2246
S'B'
p2247
I255
sS'E'
p2248
I103
sa(dp2249
S'B'
p2250
I255
sS'E'
p2251
I86
sa(dp2252
S'B'
p2253
I255
sS'E'
p2254
I69
sa(dp2255
S'B'
p2256
I255
sS'E'
p2257
I52
sa(dp2258
S'B'
p2259
I255
sS'E'
p2260
I34
sa(dp2261
S'B'
p2262
I255
sS'E'
p2263
I17
sa(dp2264
S'B'
p2265
I0
sS'E'
p2266
I0
sa(dp2267
S'B'
p2268
I255
sS'E'
p2269
I189
sa(dp2270
S'B'
p2271
I255
sS'E'
p2272
I172
sa(dp2273
S'B'
p2274
I255
sS'E'
p2275
I155
sa(dp2276
S'B'
p2277
I255
sS'E'
p2278
I137
sa(dp2279
S'B'
p2280
I255
sS'E'
p2281
I120
sa(dp2282
S'B'
p2283
I255
sS'E'
p2284
I103
sa(dp2285
S'B'
p2286
I255
sS'E'
p2287
I86
sa(dp2288
S'B'
p2289
I255
sS'E'
p2290
I69
sa(dp2291
S'B'
p2292
I255
sS'E'
p2293
I52
sa(dp2294
S'B'
p2295
I255
sS'E'
p2296
I34
sa(dp2297
S'B'
p2298
I255
sS'E'
p2299
I17
sa(dp2300
S'B'
p2301
I0
sS'E'
p2302
I0
sa(dp2303
S'B'
p2304
I255
sS'E'
p2305
I189
sa(dp2306
S'B'
p2307
I255
sS'E'
p2308
I172
sa(dp2309
S'B'
p2310
I255
sS'E'
p2311
I155
sa(dp2312
S'B'
p2313
I255
sS'E'
p2314
I137
sa(dp2315
S'B'
p2316
I255
sS'E'
p2317
I120
sa(dp2318
S'B'
p2319
I255
sS'E'
p2320
I103
sa(dp2321
S'B'
p2322
I255
sS'E'
p2323
I86
sa(dp2324
S'B'
p2325
I255
sS'E'
p2326
I69
sa(dp2327
S'B'
p2328
I255
sS'E'
p2329
I52
sa(dp2330
S'B'
p2331
I255
sS'E'
p2332
I34
sa(dp2333
S'B'
p2334
I255
sS'E'
p2335
I17
sa(dp2336
S'B'
p2337
I0
sS'E'
p2338
I0
sa(dp2339
S'B'
p2340
I255
sS'E'
p2341
I189
sa(dp2342
S'B'
p2343
I255
sS'E'
p2344
I172
sa(dp2345
S'B'
p2346
I255
sS'E'
p2347
I155
sa(dp2348
S'B'
p2349
I255
sS'E'
p2350
I137
sa(dp2351
S'B'
p2352
I255
sS'E'
p2353
I120
sa(dp2354
S'B'
p2355
I255
sS'E'
p2356
I103
sa(dp2357
S'B'
p2358
I255
sS'E'
p2359
I86
sa(dp2360
S'B'
p2361
I255
sS'E'
p2362
I69
sa(dp2363
S'B'
p2364
I255
sS'E'
p2365
I52
sa(dp2366
S'B'
p2367
I255
sS'E'
p2368
I34
sa(dp2369
S'B'
p2370
I255
sS'E'
p2371
I17
sa(dp2372
S'B'
p2373
I0
sS'E'
p2374
I0
sa(dp2375
S'B'
p2376
I255
sS'E'
p2377
I189
sa(dp2378
S'B'
p2379
I255
sS'E'
p2380
I172
sa(dp2381
S'B'
p2382
I255
sS'E'
p2383
I155
sa(dp2384
S'B'
p2385
I255
sS'E'
p2386
I137
sa(dp2387
S'B'
p2388
I255
sS'E'
p2389
I120
sa(dp2390
S'B'
p2391
I255
sS'E'
p2392
I103
sa(dp2393
S'B'
p2394
I255
sS'E'
p2395
I86
sa(dp2396
S'B'
p2397
I255
sS'E'
p2398
I69
sa(dp2399
S'B'
p2400
I255
sS'E'
p2401
I52
sa(dp2402
S'B'
p2403
I255
sS'E'
p2404
I34
sa(dp2405
S'B'
p2406
I255
sS'E'
p2407
I17
sa(dp2408
S'B'
p2409
I0
sS'E'
p2410
I0
sa(dp2411
S'B'
p2412
I255
sS'E'
p2413
I189
sa(dp2414
S'B'
p2415
I255
sS'E'
p2416
I172
sa(dp2417
S'B'
p2418
I255
sS'E'
p2419
I155
sa(dp2420
S'B'
p2421
I255
sS'E'
p2422
I137
sa(dp2423
S'B'
p2424
I255
sS'E'
p2425
I120
sa(dp2426
S'B'
p2427
I255
sS'E'
p2428
I103
sa(dp2429
S'B'
p2430
I255
sS'E'
p2431
I86
sa(dp2432
S'B'
p2433
I255
sS'E'
p2434
I69
sa(dp2435
S'B'
p2436
I255
sS'E'
p2437
I52
sa(dp2438
S'B'
p2439
I255
sS'E'
p2440
I34
sa(dp2441
S'B'
p2442
I255
sS'E'
p2443
I17
sa(dp2444
S'B'
p2445
I0
sS'E'
p2446
I0
sa(dp2447
S'B'
p2448
I255
sS'E'
p2449
I189
sa(dp2450
S'B'
p2451
I255
sS'E'
p2452
I172
sa(dp2453
S'B'
p2454
I255
sS'E'
p2455
I155
sa(dp2456
S'B'
p2457
I255
sS'E'
p2458
I137
sa(dp2459
S'B'
p2460
I255
sS'E'
p2461
I120
sa(dp2462
S'B'
p2463
I255
sS'E'
p2464
I103
sa(dp2465
S'B'
p2466
I255
sS'E'
p2467
I86
sa(dp2468
S'B'
p2469
I255
sS'E'
p2470
I69
sa(dp2471
S'B'
p2472
I255
sS'E'
p2473
I52
sa(dp2474
S'B'
p2475
I255
sS'E'
p2476
I34
sa(dp2477
S'B'
p2478
I255
sS'E'
p2479
I17
sa(dp2480
S'B'
p2481
I0
sS'E'
p2482
I0
sa(dp2483
S'B'
p2484
I255
sS'E'
p2485
I189
sa(dp2486
S'B'
p2487
I255
sS'E'
p2488
I172
sa(dp2489
S'B'
p2490
I255
sS'E'
p2491
I155
sa(dp2492
S'B'
p2493
I255
sS'E'
p2494
I137
sa(dp2495
S'B'
p2496
I255
sS'E'
p2497
I120
sa(dp2498
S'B'
p2499
I255
sS'E'
p2500
I103
sa(dp2501
S'B'
p2502
I255
sS'E'
p2503
I86
sa(dp2504
S'B'
p2505
I255
sS'E'
p2506
I69
sa(dp2507
S'B'
p2508
I255
sS'E'
p2509
I52
sa(dp2510
S'B'
p2511
I255
sS'E'
p2512
I34
sa(dp2513
S'B'
p2514
I255
sS'E'
p2515
I17
sa(dp2516
S'B'
p2517
I0
sS'E'
p2518
I0
sa(dp2519
S'B'
p2520
I255
sS'E'
p2521
I189
sa(dp2522
S'B'
p2523
I255
sS'E'
p2524
I172
sa(dp2525
S'B'
p2526
I255
sS'E'
p2527
I155
sa(dp2528
S'B'
p2529
I255
sS'E'
p2530
I137
sa(dp2531
S'B'
p2532
I255
sS'E'
p2533
I120
sa(dp2534
S'B'
p2535
I255
sS'E'
p2536
I103
sa(dp2537
S'B'
p2538
I255
sS'E'
p2539
I86
sa(dp2540
S'B'
p2541
I255
sS'E'
p2542
I69
sa(dp2543
S'B'
p2544
I255
sS'E'
p2545
I52
sa(dp2546
S'B'
p2547
I255
sS'E'
p2548
I34
sa(dp2549
S'B'
p2550
I255
sS'E'
p2551
I17
sa(dp2552
S'B'
p2553
I0
sS'E'
p2554
I0
sa(dp2555
S'B'
p2556
I255
sS'E'
p2557
I189
sa(dp2558
S'B'
p2559
I255
sS'E'
p2560
I172
sa(dp2561
S'B'
p2562
I255
sS'E'
p2563
I155
sa(dp2564
S'B'
p2565
I255
sS'E'
p2566
I137
sa(dp2567
S'B'
p2568
I255
sS'E'
p2569
I120
sa(dp2570
S'B'
p2571
I255
sS'E'
p2572
I103
sa(dp2573
S'B'
p2574
I255
sS'E'
p2575
I86
sa(dp2576
S'B'
p2577
I255
sS'E'
p2578
I69
sa(dp2579
S'B'
p2580
I255
sS'E'
p2581
I52
sa(dp2582
S'B'
p2583
I255
sS'E'
p2584
I34
sa(dp2585
S'B'
p2586
I255
sS'E'
p2587
I17
sa(dp2588
S'B'
p2589
I0
sS'E'
p2590
I0
sa(dp2591
S'B'
p2592
I255
sS'E'
p2593
I189
sa(dp2594
S'B'
p2595
I255
sS'E'
p2596
I172
sa(dp2597
S'B'
p2598
I255
sS'E'
p2599
I155
sa(dp2600
S'B'
p2601
I255
sS'E'
p2602
I137
sa(dp2603
S'B'
p2604
I255
sS'E'
p2605
I120
sa(dp2606
S'B'
p2607
I255
sS'E'
p2608
I103
sa(dp2609
S'B'
p2610
I255
sS'E'
p2611
I86
sa(dp2612
S'B'
p2613
I255
sS'E'
p2614
I69
sa(dp2615
S'B'
p2616
I255
sS'E'
p2617
I52
sa(dp2618
S'B'
p2619
I255
sS'E'
p2620
I34
sa(dp2621
S'B'
p2622
I255
sS'E'
p2623
I17
sa(dp2624
S'B'
p2625
I0
sS'E'
p2626
I0
sa(dp2627
S'B'
p2628
I255
sS'E'
p2629
I189
sa(dp2630
S'B'
p2631
I255
sS'E'
p2632
I172
sa(dp2633
S'B'
p2634
I255
sS'E'
p2635
I155
sa(dp2636
S'B'
p2637
I255
sS'E'
p2638
I137
sa(dp2639
S'B'
p2640
I255
sS'E'
p2641
I120
sa(dp2642
S'B'
p2643
I255
sS'E'
p2644
I103
sa(dp2645
S'B'
p2646
I255
sS'E'
p2647
I86
sa(dp2648
S'B'
p2649
I255
sS'E'
p2650
I69
sa(dp2651
S'B'
p2652
I255
sS'E'
p2653
I52
sa(dp2654
S'B'
p2655
I255
sS'E'
p2656
I34
sa(dp2657
S'B'
p2658
I255
sS'E'
p2659
I17
sa(dp2660
S'B'
p2661
I0
sS'E'
p2662
I0
sa(dp2663
S'B'
p2664
I255
sS'E'
p2665
I189
sa(dp2666
S'B'
p2667
I255
sS'E'
p2668
I172
sa(dp2669
S'B'
p2670
I255
sS'E'
p2671
I155
sa(dp2672
S'B'
p2673
I255
sS'E'
p2674
I137
sa(dp2675
S'B'
p2676
I255
sS'E'
p2677
I120
sa(dp2678
S'B'
p2679
I255
sS'E'
p2680
I103
sa(dp2681
S'B'
p2682
I255
sS'E'
p2683
I86
sa(dp2684
S'B'
p2685
I255
sS'E'
p2686
I69
sa(dp2687
S'B'
p2688
I255
sS'E'
p2689
I52
sa(dp2690
S'B'
p2691
I255
sS'E'
p2692
I34
sa(dp2693
S'B'
p2694
I255
sS'E'
p2695
I17
sa(dp2696
S'B'
p2697
I0
sS'E'
p2698
I0
sa(dp2699
S'B'
p2700
I255
sS'E'
p2701
I189
sa(dp2702
S'B'
p2703
I255
sS'E'
p2704
I172
sa(dp2705
S'B'
p2706
I255
sS'E'
p2707
I155
sa(dp2708
S'B'
p2709
I255
sS'E'
p2710
I137
sa(dp2711
S'B'
p2712
I255
sS'E'
p2713
I120
sa(dp2714
S'B'
p2715
I255
sS'E'
p2716
I103
sa(dp2717
S'B'
p2718
I255
sS'E'
p2719
I86
sa(dp2720
S'B'
p2721
I255
sS'E'
p2722
I69
sa(dp2723
S'B'
p2724
I255
sS'E'
p2725
I52
sa(dp2726
S'B'
p2727
I255
sS'E'
p2728
I34
sa(dp2729
S'B'
p2730
I255
sS'E'
p2731
I17
sa(dp2732
S'B'
p2733
I0
sS'E'
p2734
I0
sa(dp2735
S'B'
p2736
I255
sS'E'
p2737
I189
sa(dp2738
S'B'
p2739
I255
sS'E'
p2740
I172
sa(dp2741
S'B'
p2742
I255
sS'E'
p2743
I155
sa(dp2744
S'B'
p2745
I255
sS'E'
p2746
I137
sa(dp2747
S'B'
p2748
I255
sS'E'
p2749
I120
sa(dp2750
S'B'
p2751
I255
sS'E'
p2752
I103
sa(dp2753
S'B'
p2754
I255
sS'E'
p2755
I86
sa(dp2756
S'B'
p2757
I255
sS'E'
p2758
I69
sa(dp2759
S'B'
p2760
I255
sS'E'
p2761
I52
sa(dp2762
S'B'
p2763
I255
sS'E'
p2764
I34
sa(dp2765
S'B'
p2766
I255
sS'E'
p2767
I17
sa(dp2768
S'B'
p2769
I0
sS'E'
p2770
I0
sa(dp2771
S'B'
p2772
I255
sS'E'
p2773
I189
sa(dp2774
S'B'
p2775
I255
sS'E'
p2776
I172
sa(dp2777
S'B'
p2778
I255
sS'E'
p2779
I155
sa(dp2780
S'B'
p2781
I255
sS'E'
p2782
I137
sa(dp2783
S'B'
p2784
I255
sS'E'
p2785
I120
sa(dp2786
S'B'
p2787
I255
sS'E'
p2788
I103
sa(dp2789
S'B'
p2790
I255
sS'E'
p2791
I86
sa(dp2792
S'B'
p2793
I255
sS'E'
p2794
I69
sa(dp2795
S'B'
p2796
I255
sS'E'
p2797
I52
sa(dp2798
S'B'
p2799
I255
sS'E'
p2800
I34
sa(dp2801
S'B'
p2802
I255
sS'E'
p2803
I17
sa(dp2804
S'B'
p2805
I0
sS'E'
p2806
I0
sa(dp2807
S'B'
p2808
I255
sS'E'
p2809
I189
sa(dp2810
S'B'
p2811
I255
sS'E'
p2812
I172
sa(dp2813
S'B'
p2814
I255
sS'E'
p2815
I155
sa(dp2816
S'B'
p2817
I255
sS'E'
p2818
I137
sa(dp2819
S'B'
p2820
I255
sS'E'
p2821
I120
sa(dp2822
S'B'
p2823
I255
sS'E'
p2824
I103
sa(dp2825
S'B'
p2826
I255
sS'E'
p2827
I86
sa(dp2828
S'B'
p2829
I255
sS'E'
p2830
I69
sa(dp2831
S'B'
p2832
I255
sS'E'
p2833
I52
sa(dp2834
S'B'
p2835
I255
sS'E'
p2836
I34
sa(dp2837
S'B'
p2838
I255
sS'E'
p2839
I17
sa(dp2840
S'B'
p2841
I0
sS'E'
p2842
I0
sa(dp2843
S'B'
p2844
I255
sS'E'
p2845
I189
sa(dp2846
S'B'
p2847
I255
sS'E'
p2848
I172
sa(dp2849
S'B'
p2850
I255
sS'E'
p2851
I155
sa(dp2852
S'B'
p2853
I255
sS'E'
p2854
I137
sa(dp2855
S'B'
p2856
I255
sS'E'
p2857
I120
sa(dp2858
S'B'
p2859
I255
sS'E'
p2860
I103
sa(dp2861
S'B'
p2862
I255
sS'E'
p2863
I86
sa(dp2864
S'B'
p2865
I255
sS'E'
p2866
I69
sa(dp2867
S'B'
p2868
I255
sS'E'
p2869
I52
sa(dp2870
S'B'
p2871
I255
sS'E'
p2872
I34
sa(dp2873
S'B'
p2874
I255
sS'E'
p2875
I17
sa(dp2876
S'B'
p2877
I0
sS'E'
p2878
I0
sa(dp2879
S'B'
p2880
I255
sS'E'
p2881
I189
sa(dp2882
S'B'
p2883
I255
sS'E'
p2884
I172
sa(dp2885
S'B'
p2886
I255
sS'E'
p2887
I155
sa(dp2888
S'B'
p2889
I255
sS'E'
p2890
I137
sa(dp2891
S'B'
p2892
I255
sS'E'
p2893
I120
sa(dp2894
S'B'
p2895
I255
sS'E'
p2896
I103
sa(dp2897
S'B'
p2898
I255
sS'E'
p2899
I86
sa(dp2900
S'B'
p2901
I255
sS'E'
p2902
I69
sa(dp2903
S'B'
p2904
I255
sS'E'
p2905
I52
sa(dp2906
S'B'
p2907
I255
sS'E'
p2908
I34
sa(dp2909
S'B'
p2910
I255
sS'E'
p2911
I17
sa(dp2912
S'B'
p2913
I0
sS'E'
p2914
I0
sa(dp2915
S'B'
p2916
I255
sS'E'
p2917
I189
sa(dp2918
S'B'
p2919
I255
sS'E'
p2920
I172
sa(dp2921
S'B'
p2922
I255
sS'E'
p2923
I155
sa(dp2924
S'B'
p2925
I255
sS'E'
p2926
I137
sa(dp2927
S'B'
p2928
I255
sS'E'
p2929
I120
sa(dp2930
S'B'
p2931
I255
sS'E'
p2932
I103
sa(dp2933
S'B'
p2934
I255
sS'E'
p2935
I86
sa(dp2936
S'B'
p2937
I255
sS'E'
p2938
I69
sa(dp2939
S'B'
p2940
I255
sS'E'
p2941
I52
sa(dp2942
S'B'
p2943
I255
sS'E'
p2944
I34
sa(dp2945
S'B'
p2946
I255
sS'E'
p2947
I17
sa(dp2948
S'B'
p2949
I0
sS'E'
p2950
I0
sa(dp2951
S'B'
p2952
I255
sS'E'
p2953
I189
sa(dp2954
S'B'
p2955
I255
sS'E'
p2956
I172
sa(dp2957
S'B'
p2958
I255
sS'E'
p2959
I155
sa(dp2960
S'B'
p2961
I255
sS'E'
p2962
I137
sa(dp2963
S'B'
p2964
I255
sS'E'
p2965
I120
sa(dp2966
S'B'
p2967
I255
sS'E'
p2968
I103
sa(dp2969
S'B'
p2970
I255
sS'E'
p2971
I86
sa(dp2972
S'B'
p2973
I255
sS'E'
p2974
I69
sa(dp2975
S'B'
p2976
I255
sS'E'
p2977
I52
sa(dp2978
S'B'
p2979
I255
sS'E'
p2980
I34
sa(dp2981
S'B'
p2982
I255
sS'E'
p2983
I17
sa(dp2984
S'B'
p2985
I0
sS'E'
p2986
I0
sa(dp2987
S'B'
p2988
I255
sS'E'
p2989
I189
sa(dp2990
S'B'
p2991
I255
sS'E'
p2992
I172
sa(dp2993
S'B'
p2994
I255
sS'E'
p2995
I155
sa(dp2996
S'B'
p2997
I255
sS'E'
p2998
I137
sa(dp2999
S'B'
p3000
I255
sS'E'
p3001
I120
sa(dp3002
S'B'
p3003
I255
sS'E'
p3004
I103
sa(dp3005
S'B'
p3006
I255
sS'E'
p3007
I86
sa(dp3008
S'B'
p3009
I255
sS'E'
p3010
I69
sa(dp3011
S'B'
p3012
I255
sS'E'
p3013
I52
sa(dp3014
S'B'
p3015
I255
sS'E'
p3016
I34
sa(dp3017
S'B'
p3018
I255
sS'E'
p3019
I17
sa(dp3020
S'B'
p3021
I0
sS'E'
p3022
I0
sa(dp3023
S'B'
p3024
I255
sS'E'
p3025
I189
sa(dp3026
S'B'
p3027
I255
sS'E'
p3028
I172
sa(dp3029
S'B'
p3030
I255
sS'E'
p3031
I155
sa(dp3032
S'B'
p3033
I255
sS'E'
p3034
I137
sa(dp3035
S'B'
p3036
I255
sS'E'
p3037
I120
sa(dp3038
S'B'
p3039
I255
sS'E'
p3040
I103
sa(dp3041
S'B'
p3042
I255
sS'E'
p3043
I86
sa(dp3044
S'B'
p3045
I255
sS'E'
p3046
I69
sa(dp3047
S'B'
p3048
I255
sS'E'
p3049
I52
sa(dp3050
S'B'
p3051
I255
sS'E'
p3052
I34
sa(dp3053
S'B'
p3054
I255
sS'E'
p3055
I17
sa(dp3056
S'B'
p3057
I0
sS'E'
p3058
I0
sa(dp3059
S'B'
p3060
I255
sS'E'
p3061
I189
sa(dp3062
S'B'
p3063
I255
sS'E'
p3064
I172
sa(dp3065
S'B'
p3066
I255
sS'E'
p3067
I155
sa(dp3068
S'B'
p3069
I255
sS'E'
p3070
I137
sa(dp3071
S'B'
p3072
I255
sS'E'
p3073
I120
sa(dp3074
S'B'
p3075
I255
sS'E'
p3076
I103
sa(dp3077
S'B'
p3078
I255
sS'E'
p3079
I86
sa(dp3080
S'B'
p3081
I255
sS'E'
p3082
I69
sa(dp3083
S'B'
p3084
I255
sS'E'
p3085
I52
sa(dp3086
S'B'
p3087
I255
sS'E'
p3088
I34
sa(dp3089
S'B'
p3090
I255
sS'E'
p3091
I17
sa(dp3092
S'B'
p3093
I0
sS'E'
p3094
I0
sa(dp3095
S'B'
p3096
I255
sS'E'
p3097
I189
sa(dp3098
S'B'
p3099
I255
sS'E'
p3100
I172
sa(dp3101
S'B'
p3102
I255
sS'E'
p3103
I155
sa(dp3104
S'B'
p3105
I255
sS'E'
p3106
I137
sa(dp3107
S'B'
p3108
I255
sS'E'
p3109
I120
sa(dp3110
S'B'
p3111
I255
sS'E'
p3112
I103
sa(dp3113
S'B'
p3114
I255
sS'E'
p3115
I86
sa(dp3116
S'B'
p3117
I255
sS'E'
p3118
I69
sa(dp3119
S'B'
p3120
I255
sS'E'
p3121
I52
sa(dp3122
S'B'
p3123
I255
sS'E'
p3124
I34
sa(dp3125
S'B'
p3126
I255
sS'E'
p3127
I17
sa(dp3128
S'B'
p3129
I0
sS'E'
p3130
I0
sa(dp3131
S'B'
p3132
I255
sS'E'
p3133
I189
sa(dp3134
S'B'
p3135
I255
sS'E'
p3136
I172
sa(dp3137
S'B'
p3138
I255
sS'E'
p3139
I155
sas.